; Function Attrs: mustprogress nofree norecurse nosync nounwind willreturn memory(read, argmem: readwrite, inaccessiblemem: none) uwtable
define internal noundef i32 @php_pdosqlite3_stream_stat(ptr noundef readonly captures(none) %0, ptr noundef writeonly captures(none) initializes((48, 56)) %1) #6 {
  %3 = getelementptr inbounds nuw i8, ptr %0, i64 8
  %4 = load ptr, ptr %3, align 8, !tbaa !105
  %5 = getelementptr inbounds nuw i8, ptr %4, i64 16
  %6 = load i64, ptr %5, align 8, !tbaa !86
  %7 = getelementptr inbounds nuw i8, ptr %1, i64 48
  store i64 %6, ptr %7, align 8, !tbaa !106
  ret i32 0
}